target datalayout = "e-m:e-p270:32:32-p271:32:32-p272:64:64-i64:64-i128:128-f80:128-n8:16:32:64-S128"
target triple = "x86_64-pc-linux-gnu"

%"class.google::protobuf::TextFormat::Printer" = type { i32, i8, i8, i8, i8, i8, i8, i8, i64, %"class.std::unique_ptr", %"class.std::map", %"class.std::map.5", ptr }
%"class.std::unique_ptr" = type { %"struct.std::__uniq_ptr_data" }
%"struct.std::__uniq_ptr_data" = type { %"class.std::__uniq_ptr_impl" }
%"class.std::__uniq_ptr_impl" = type { %"class.std::tuple" }
%"class.std::tuple" = type { %"struct.std::_Tuple_impl" }
%"struct.std::_Tuple_impl" = type { %"struct.std::_Head_base.1" }
%"struct.std::_Head_base.1" = type { ptr }
%"class.std::map" = type { %"class.std::_Rb_tree" }
%"class.std::_Rb_tree" = type { %"struct.std::_Rb_tree<const google::protobuf::FieldDescriptor *, std::pair<const google::protobuf::FieldDescriptor *const, std::unique_ptr<const google::protobuf::TextFormat::FastFieldValuePrinter>>, std::_Select1st<std::pair<const google::protobuf::FieldDescriptor *const, std::unique_ptr<const google::protobuf::TextFormat::FastFieldValuePrinter>>>, std::less<const google::protobuf::FieldDescriptor *>>::_Rb_tree_impl" }
%"struct.std::_Rb_tree<const google::protobuf::FieldDescriptor *, std::pair<const google::protobuf::FieldDescriptor *const, std::unique_ptr<const google::protobuf::TextFormat::FastFieldValuePrinter>>, std::_Select1st<std::pair<const google::protobuf::FieldDescriptor *const, std::unique_ptr<const google::protobuf::TextFormat::FastFieldValuePrinter>>>, std::less<const google::protobuf::FieldDescriptor *>>::_Rb_tree_impl" = type { [8 x i8], %"struct.std::_Rb_tree_header" }
%"struct.std::_Rb_tree_header" = type { %"struct.std::_Rb_tree_node_base", i64 }
%"struct.std::_Rb_tree_node_base" = type { i32, ptr, ptr, ptr }
%"class.std::map.5" = type { %"class.std::_Rb_tree.6" }
%"class.std::_Rb_tree.6" = type { %"struct.std::_Rb_tree<const google::protobuf::Descriptor *, std::pair<const google::protobuf::Descriptor *const, std::unique_ptr<const google::protobuf::TextFormat::MessagePrinter>>, std::_Select1st<std::pair<const google::protobuf::Descriptor *const, std::unique_ptr<const google::protobuf::TextFormat::MessagePrinter>>>, std::less<const google::protobuf::Descriptor *>>::_Rb_tree_impl" }
%"struct.std::_Rb_tree<const google::protobuf::Descriptor *, std::pair<const google::protobuf::Descriptor *const, std::unique_ptr<const google::protobuf::TextFormat::MessagePrinter>>, std::_Select1st<std::pair<const google::protobuf::Descriptor *const, std::unique_ptr<const google::protobuf::TextFormat::MessagePrinter>>>, std::less<const google::protobuf::Descriptor *>>::_Rb_tree_impl" = type { [8 x i8], %"struct.std::_Rb_tree_header" }

@_ZN6google8protobuf10TextFormat7PrinterC1Ev = hidden unnamed_addr alias void (ptr), ptr @_ZN6google8protobuf10TextFormat7PrinterC2Ev

; Function Attrs: mustprogress uwtable
define hidden void @_ZN6google8protobuf10TextFormat23PrintFieldValueToStringERKNS0_7MessageEPKNS0_15FieldDescriptorEiPNSt7__cxx1112basic_stringIcSt11char_traitsIcESaIcEEE(ptr noundef nonnull align 8 dereferenceable(16) %0, ptr noundef %1, i32 noundef %2, ptr noundef %3) #4 align 2 personality ptr @__gxx_personality_v0 {
  %5 = alloca ptr, align 8
  %6 = alloca ptr, align 8
  %7 = alloca i32, align 4
  %8 = alloca ptr, align 8
  %9 = alloca %"class.google::protobuf::TextFormat::Printer", align 8
  %10 = alloca ptr, align 8
  %11 = alloca i32, align 4
  store ptr %0, ptr %5, align 8, !tbaa !3
  store ptr %1, ptr %6, align 8, !tbaa !58
  store i32 %2, ptr %7, align 4, !tbaa !95
  store ptr %3, ptr %8, align 8, !tbaa !8
  call void @llvm.lifetime.start.p0(i64 136, ptr %9) #3
  call void @_ZN6google8protobuf10TextFormat7PrinterC1Ev(ptr noundef nonnull align 8 dereferenceable(136) %9)
  %12 = load ptr, ptr %5, align 8, !tbaa !3
  %13 = load ptr, ptr %6, align 8, !tbaa !58
  %14 = load i32, ptr %7, align 4, !tbaa !95
  %15 = load ptr, ptr %8, align 8, !tbaa !8
  invoke void @_ZNK6google8protobuf10TextFormat7Printer23PrintFieldValueToStringERKNS0_7MessageEPKNS0_15FieldDescriptorEiPNSt7__cxx1112basic_stringIcSt11char_traitsIcESaIcEEE(ptr noundef nonnull align 8 dereferenceable(136) %9, ptr noundef nonnull align 8 dereferenceable(16) %12, ptr noundef %13, i32 noundef %14, ptr noundef %15)
          to label %16 unwind label %17

16:                                               ; preds = %4
  call void @_ZN6google8protobuf10TextFormat7PrinterD2Ev(ptr noundef nonnull align 8 dereferenceable(136) %9) #3
  call void @llvm.lifetime.end.p0(i64 136, ptr %9) #3
  ret void

17:                                               ; preds = %4
  %18 = landingpad { ptr, i32 }
          cleanup
  %19 = extractvalue { ptr, i32 } %18, 0
  store ptr %19, ptr %10, align 8
  %20 = extractvalue { ptr, i32 } %18, 1
  store i32 %20, ptr %11, align 4
  call void @_ZN6google8protobuf10TextFormat7PrinterD2Ev(ptr noundef nonnull align 8 dereferenceable(136) %9) #3
  call void @llvm.lifetime.end.p0(i64 136, ptr %9) #3
  br label %21

21:                                               ; preds = %17
  %22 = load ptr, ptr %10, align 8
  %23 = load i32, ptr %11, align 4
  %24 = insertvalue { ptr, i32 } poison, ptr %22, 0
  %25 = insertvalue { ptr, i32 } %24, i32 %23, 1
  resume { ptr, i32 } %25
}