; Function Attrs: mustprogress uwtable
define hidden void @_ZN6google8protobuf10TextFormat23PrintFieldValueToStringERKNS0_7MessageEPKNS0_15FieldDescriptorEiPNSt7__cxx1112basic_stringIcSt11char_traitsIcESaIcEEE(ptr noundef nonnull align 8 dereferenceable(16) %0, ptr noundef %1, i32 noundef %2, ptr noundef %3) local_unnamed_addr #3 align 2 personality ptr @__gxx_personality_v0 {
  %5 = alloca %"class.google::protobuf::TextFormat::Printer", align 8
  call void @llvm.lifetime.start.p0(i64 136, ptr nonnull %5) #31
  %6 = getelementptr inbounds nuw i8, ptr %5, i64 16
  %7 = getelementptr inbounds nuw i8, ptr %5, i64 24
  %8 = getelementptr inbounds nuw i8, ptr %5, i64 40
  store i32 0, ptr %8, align 8, !tbaa !13
  %9 = getelementptr inbounds nuw i8, ptr %5, i64 48
  store ptr null, ptr %9, align 8, !tbaa !18
  %10 = getelementptr inbounds nuw i8, ptr %5, i64 56
  call void @llvm.memset.p0.i64(ptr noundef nonnull align 8 dereferenceable(136) %5, i8 0, i64 11, i1 false)
  call void @llvm.memset.p0.i64(ptr noundef nonnull align 8 dereferenceable(16) %6, i8 0, i64 16, i1 false)
  store ptr %8, ptr %10, align 8, !tbaa !19
  %11 = getelementptr inbounds nuw i8, ptr %5, i64 64
  store ptr %8, ptr %11, align 8, !tbaa !20
  %12 = getelementptr inbounds nuw i8, ptr %5, i64 72
  store i64 0, ptr %12, align 8, !tbaa !21
  %13 = getelementptr inbounds nuw i8, ptr %5, i64 88
  store i32 0, ptr %13, align 8, !tbaa !13
  %14 = getelementptr inbounds nuw i8, ptr %5, i64 96
  store ptr null, ptr %14, align 8, !tbaa !18
  %15 = getelementptr inbounds nuw i8, ptr %5, i64 104
  store ptr %13, ptr %15, align 8, !tbaa !19
  %16 = getelementptr inbounds nuw i8, ptr %5, i64 112
  store ptr %13, ptr %16, align 8, !tbaa !20
  %17 = getelementptr inbounds nuw i8, ptr %5, i64 120
  call void @llvm.memset.p0.i64(ptr noundef nonnull align 8 dereferenceable(16) %17, i8 0, i64 16, i1 false)
  %18 = invoke noalias noundef nonnull dereferenceable(8) ptr @_Znwm(i64 noundef 8) #32
          to label %_ZN6google8protobuf10TextFormat7PrinterC2Ev.exit unwind label %19

19:                                               ; preds = %4
  %20 = landingpad { ptr, i32 }
          cleanup
  %21 = getelementptr inbounds nuw i8, ptr %5, i64 80
  %22 = getelementptr inbounds nuw i8, ptr %5, i64 32
  call void @_ZNSt3mapIPKN6google8protobuf10DescriptorESt10unique_ptrIKNS1_10TextFormat14MessagePrinterESt14default_deleteIS8_EESt4lessIS4_ESaISt4pairIKS4_SB_EEED2Ev(ptr noundef nonnull align 8 dereferenceable(48) %21) #31
  call void @_ZNSt3mapIPKN6google8protobuf15FieldDescriptorESt10unique_ptrIKNS1_10TextFormat21FastFieldValuePrinterESt14default_deleteIS8_EESt4lessIS4_ESaISt4pairIKS4_SB_EEED2Ev(ptr noundef nonnull align 8 dereferenceable(48) %22) #31
  %23 = load ptr, ptr %7, align 8, !tbaa !22
  %.not.i.i = icmp eq ptr %23, null
  br i1 %.not.i.i, label %common.resume, label %_ZNKSt14default_deleteIKN6google8protobuf10TextFormat21FastFieldValuePrinterEEclEPS4_.exit.i.i

_ZNKSt14default_deleteIKN6google8protobuf10TextFormat21FastFieldValuePrinterEEclEPS4_.exit.i.i: ; preds = %19
  %24 = load ptr, ptr %23, align 8, !tbaa !24
  %25 = getelementptr inbounds nuw i8, ptr %24, i64 8
  %26 = load ptr, ptr %25, align 8
  call void %26(ptr noundef nonnull align 8 dereferenceable(8) %23) #31
  br label %common.resume

common.resume:                                    ; preds = %19, %_ZNKSt14default_deleteIKN6google8protobuf10TextFormat21FastFieldValuePrinterEEclEPS4_.exit.i.i, %42
  %common.resume.op = phi { ptr, i32 } [ %43, %42 ], [ %20, %_ZNKSt14default_deleteIKN6google8protobuf10TextFormat21FastFieldValuePrinterEEclEPS4_.exit.i.i ], [ %20, %19 ]
  resume { ptr, i32 } %common.resume.op

_ZN6google8protobuf10TextFormat7PrinterC2Ev.exit: ; preds = %4
  store ptr getelementptr inbounds nuw inrange(-16, 136) (i8, ptr @_ZTVN6google8protobuf10TextFormat7Printer28DebugStringFieldValuePrinterE, i64 16), ptr %18, align 8, !tbaa !24
  store ptr %18, ptr %7, align 8, !tbaa !22
  invoke void @_ZNK6google8protobuf10TextFormat7Printer23PrintFieldValueToStringERKNS0_7MessageEPKNS0_15FieldDescriptorEiPNSt7__cxx1112basic_stringIcSt11char_traitsIcESaIcEEE(ptr noundef nonnull align 8 dereferenceable(136) %5, ptr noundef nonnull align 8 dereferenceable(16) %0, ptr noundef %1, i32 noundef %2, ptr noundef %3)
          to label %27 unwind label %42

27:                                               ; preds = %_ZN6google8protobuf10TextFormat7PrinterC2Ev.exit
  %28 = getelementptr inbounds nuw i8, ptr %5, i64 80
  %29 = load ptr, ptr %14, align 8, !tbaa !18
  invoke void @_ZNSt8_Rb_treeIPKN6google8protobuf10DescriptorESt4pairIKS4_St10unique_ptrIKNS1_10TextFormat14MessagePrinterESt14default_deleteISA_EEESt10_Select1stISE_ESt4lessIS4_ESaISE_EE8_M_eraseEPSt13_Rb_tree_nodeISE_E(ptr noundef nonnull align 8 dereferenceable(48) %28, ptr noundef %29)
          to label %_ZNSt3mapIPKN6google8protobuf10DescriptorESt10unique_ptrIKNS1_10TextFormat14MessagePrinterESt14default_deleteIS8_EESt4lessIS4_ESaISt4pairIKS4_SB_EEED2Ev.exit.i unwind label %30

30:                                               ; preds = %27
  %31 = landingpad { ptr, i32 }
          catch ptr null
  %32 = extractvalue { ptr, i32 } %31, 0
  call void @__clang_call_terminate(ptr %32) #33
  unreachable

_ZNSt3mapIPKN6google8protobuf10DescriptorESt10unique_ptrIKNS1_10TextFormat14MessagePrinterESt14default_deleteIS8_EESt4lessIS4_ESaISt4pairIKS4_SB_EEED2Ev.exit.i: ; preds = %27
  %33 = getelementptr inbounds nuw i8, ptr %5, i64 32
  %34 = load ptr, ptr %9, align 8, !tbaa !18
  invoke void @_ZNSt8_Rb_treeIPKN6google8protobuf15FieldDescriptorESt4pairIKS4_St10unique_ptrIKNS1_10TextFormat21FastFieldValuePrinterESt14default_deleteISA_EEESt10_Select1stISE_ESt4lessIS4_ESaISE_EE8_M_eraseEPSt13_Rb_tree_nodeISE_E(ptr noundef nonnull align 8 dereferenceable(48) %33, ptr noundef %34)
          to label %_ZNSt3mapIPKN6google8protobuf15FieldDescriptorESt10unique_ptrIKNS1_10TextFormat21FastFieldValuePrinterESt14default_deleteIS8_EESt4lessIS4_ESaISt4pairIKS4_SB_EEED2Ev.exit.i unwind label %35

35:                                               ; preds = %_ZNSt3mapIPKN6google8protobuf10DescriptorESt10unique_ptrIKNS1_10TextFormat14MessagePrinterESt14default_deleteIS8_EESt4lessIS4_ESaISt4pairIKS4_SB_EEED2Ev.exit.i
  %36 = landingpad { ptr, i32 }
          catch ptr null
  %37 = extractvalue { ptr, i32 } %36, 0
  call void @__clang_call_terminate(ptr %37) #33
  unreachable

_ZNSt3mapIPKN6google8protobuf15FieldDescriptorESt10unique_ptrIKNS1_10TextFormat21FastFieldValuePrinterESt14default_deleteIS8_EESt4lessIS4_ESaISt4pairIKS4_SB_EEED2Ev.exit.i: ; preds = %_ZNSt3mapIPKN6google8protobuf10DescriptorESt10unique_ptrIKNS1_10TextFormat14MessagePrinterESt14default_deleteIS8_EESt4lessIS4_ESaISt4pairIKS4_SB_EEED2Ev.exit.i
  %38 = load ptr, ptr %7, align 8, !tbaa !22
  %.not.i.i5 = icmp eq ptr %38, null
  br i1 %.not.i.i5, label %_ZN6google8protobuf10TextFormat7PrinterD2Ev.exit, label %_ZNKSt14default_deleteIKN6google8protobuf10TextFormat21FastFieldValuePrinterEEclEPS4_.exit.i.i6

_ZNKSt14default_deleteIKN6google8protobuf10TextFormat21FastFieldValuePrinterEEclEPS4_.exit.i.i6: ; preds = %_ZNSt3mapIPKN6google8protobuf15FieldDescriptorESt10unique_ptrIKNS1_10TextFormat21FastFieldValuePrinterESt14default_deleteIS8_EESt4lessIS4_ESaISt4pairIKS4_SB_EEED2Ev.exit.i
  %39 = load ptr, ptr %38, align 8, !tbaa !24
  %40 = getelementptr inbounds nuw i8, ptr %39, i64 8
  %41 = load ptr, ptr %40, align 8
  call void %41(ptr noundef nonnull align 8 dereferenceable(8) %38) #31
  br label %_ZN6google8protobuf10TextFormat7PrinterD2Ev.exit

_ZN6google8protobuf10TextFormat7PrinterD2Ev.exit: ; preds = %_ZNSt3mapIPKN6google8protobuf15FieldDescriptorESt10unique_ptrIKNS1_10TextFormat21FastFieldValuePrinterESt14default_deleteIS8_EESt4lessIS4_ESaISt4pairIKS4_SB_EEED2Ev.exit.i, %_ZNKSt14default_deleteIKN6google8protobuf10TextFormat21FastFieldValuePrinterEEclEPS4_.exit.i.i6
  call void @llvm.lifetime.end.p0(i64 136, ptr nonnull %5) #31
  ret void

42:                                               ; preds = %_ZN6google8protobuf10TextFormat7PrinterC2Ev.exit
  %43 = landingpad { ptr, i32 }
          cleanup
  call void @_ZN6google8protobuf10TextFormat7PrinterD2Ev(ptr noundef nonnull align 8 dereferenceable(136) %5) #31
  call void @llvm.lifetime.end.p0(i64 136, ptr nonnull %5) #31
  br label %common.resume
}